target datalayout = "e-m:e-p270:32:32-p271:32:32-p272:64:64-i64:64-i128:128-f80:128-n8:16:32:64-S128"
target triple = "x86_64-pc-linux-gnu"

@.str = private unnamed_addr constant [32 x i8] c"../openssl/crypto/rsa/rsa_pk1.c\00", align 1
@__func__.ossl_rsa_prf = private unnamed_addr constant [13 x i8] c"ossl_rsa_prf\00", align 1
@.str.3 = private unnamed_addr constant [7 x i8] c"sha256\00", align 1

; Function Attrs: nounwind uwtable
define internal i32 @ossl_rsa_prf(ptr noundef %0, ptr noundef %1, i32 noundef %2, ptr noundef %3, i32 noundef %4, ptr noundef %5, i16 noundef zeroext %6) #0 {
  %8 = alloca i32, align 4
  %9 = alloca ptr, align 8
  %10 = alloca ptr, align 8
  %11 = alloca i32, align 4
  %12 = alloca ptr, align 8
  %13 = alloca i32, align 4
  %14 = alloca ptr, align 8
  %15 = alloca i16, align 2
  %16 = alloca i32, align 4
  %17 = alloca i32, align 4
  %18 = alloca i16, align 2
  %19 = alloca [2 x i8], align 1
  %20 = alloca [2 x i8], align 1
  %21 = alloca ptr, align 8
  %22 = alloca ptr, align 8
  %23 = alloca [32 x i8], align 16
  %24 = alloca i32, align 4
  %25 = alloca i32, align 4
  store ptr %0, ptr %9, align 8, !tbaa !13
  store ptr %1, ptr %10, align 8, !tbaa !3
  store i32 %2, ptr %11, align 4, !tbaa !8
  store ptr %3, ptr %12, align 8, !tbaa !3
  store i32 %4, ptr %13, align 4, !tbaa !8
  store ptr %5, ptr %14, align 8, !tbaa !3
  store i16 %6, ptr %15, align 2, !tbaa !22
  call void @llvm.lifetime.start.p0(i64 4, ptr %16) #6
  call void @llvm.lifetime.start.p0(i64 4, ptr %17) #6
  store i32 -1, ptr %17, align 4, !tbaa !8
  call void @llvm.lifetime.start.p0(i64 2, ptr %18) #6
  store i16 0, ptr %18, align 2, !tbaa !22
  call void @llvm.lifetime.start.p0(i64 2, ptr %19) #6
  call void @llvm.lifetime.start.p0(i64 2, ptr %20) #6
  call void @llvm.lifetime.start.p0(i64 8, ptr %21) #6
  store ptr null, ptr %21, align 8, !tbaa !27
  call void @llvm.lifetime.start.p0(i64 8, ptr %22) #6
  store ptr null, ptr %22, align 8, !tbaa !29
  call void @llvm.lifetime.start.p0(i64 32, ptr %23) #6
  call void @llvm.lifetime.start.p0(i64 4, ptr %24) #6
  %26 = load i32, ptr %11, align 4, !tbaa !8
  %27 = mul nsw i32 %26, 8
  %28 = load i16, ptr %15, align 2, !tbaa !22
  %29 = zext i16 %28 to i32
  %30 = icmp ne i32 %27, %29
  br i1 %30, label %31, label %33

31:                                               ; preds = %7
  call void @ERR_new()
  call void @ERR_set_debug(ptr noundef @.str, i32 noundef 296, ptr noundef @__func__.ossl_rsa_prf)
  call void (i32, i32, ptr, ...) @ERR_set_error(i32 noundef 4, i32 noundef 786691, ptr noundef null)
  %32 = load i32, ptr %17, align 4, !tbaa !8
  store i32 %32, ptr %8, align 4
  store i32 1, ptr %25, align 4
  br label %145

33:                                               ; preds = %7
  %34 = load i16, ptr %15, align 2, !tbaa !22
  %35 = zext i16 %34 to i32
  %36 = ashr i32 %35, 8
  %37 = and i32 %36, 255
  %38 = trunc i32 %37 to i8
  %39 = getelementptr inbounds [2 x i8], ptr %20, i64 0, i64 0
  store i8 %38, ptr %39, align 1, !tbaa !10
  %40 = load i16, ptr %15, align 2, !tbaa !22
  %41 = zext i16 %40 to i32
  %42 = and i32 %41, 255
  %43 = trunc i32 %42 to i8
  %44 = getelementptr inbounds [2 x i8], ptr %20, i64 0, i64 1
  store i8 %43, ptr %44, align 1, !tbaa !10
  %45 = call ptr @HMAC_CTX_new()
  store ptr %45, ptr %21, align 8, !tbaa !27
  %46 = load ptr, ptr %21, align 8, !tbaa !27
  %47 = icmp eq ptr %46, null
  br i1 %47, label %48, label %49

48:                                               ; preds = %33
  call void @ERR_new()
  call void @ERR_set_debug(ptr noundef @.str, i32 noundef 305, ptr noundef @__func__.ossl_rsa_prf)
  call void (i32, i32, ptr, ...) @ERR_set_error(i32 noundef 4, i32 noundef 786691, ptr noundef null)
  br label %141

49:                                               ; preds = %33
  %50 = load ptr, ptr %9, align 8, !tbaa !13
  %51 = call ptr @EVP_MD_fetch(ptr noundef %50, ptr noundef @.str.3, ptr noundef null)
  store ptr %51, ptr %22, align 8, !tbaa !29
  %52 = load ptr, ptr %22, align 8, !tbaa !29
  %53 = icmp eq ptr %52, null
  br i1 %53, label %54, label %55

54:                                               ; preds = %49
  call void @ERR_new()
  call void @ERR_set_debug(ptr noundef @.str, i32 noundef 318, ptr noundef @__func__.ossl_rsa_prf)
  call void (i32, i32, ptr, ...) @ERR_set_error(i32 noundef 4, i32 noundef 786691, ptr noundef null)
  br label %141

55:                                               ; preds = %49
  %56 = load ptr, ptr %21, align 8, !tbaa !27
  %57 = load ptr, ptr %14, align 8, !tbaa !3
  %58 = load ptr, ptr %22, align 8, !tbaa !29
  %59 = call i32 @HMAC_Init_ex(ptr noundef %56, ptr noundef %57, i32 noundef 32, ptr noundef %58, ptr noundef null)
  %60 = icmp sle i32 %59, 0
  br i1 %60, label %61, label %62

61:                                               ; preds = %55
  call void @ERR_new()
  call void @ERR_set_debug(ptr noundef @.str, i32 noundef 323, ptr noundef @__func__.ossl_rsa_prf)
  call void (i32, i32, ptr, ...) @ERR_set_error(i32 noundef 4, i32 noundef 786691, ptr noundef null)
  br label %141

62:                                               ; preds = %55
  store i32 0, ptr %16, align 4, !tbaa !8
  br label %63

63:                                               ; preds = %135, %62
  %64 = load i32, ptr %16, align 4, !tbaa !8
  %65 = load i32, ptr %11, align 4, !tbaa !8
  %66 = icmp slt i32 %64, %65
  br i1 %66, label %67, label %140

67:                                               ; preds = %63
  %68 = load ptr, ptr %21, align 8, !tbaa !27
  %69 = call i32 @HMAC_Init_ex(ptr noundef %68, ptr noundef null, i32 noundef 0, ptr noundef null, ptr noundef null)
  %70 = icmp sle i32 %69, 0
  br i1 %70, label %71, label %72

71:                                               ; preds = %67
  call void @ERR_new()
  call void @ERR_set_debug(ptr noundef @.str, i32 noundef 329, ptr noundef @__func__.ossl_rsa_prf)
  call void (i32, i32, ptr, ...) @ERR_set_error(i32 noundef 4, i32 noundef 786691, ptr noundef null)
  br label %141

72:                                               ; preds = %67
  %73 = load i16, ptr %18, align 2, !tbaa !22
  %74 = zext i16 %73 to i32
  %75 = ashr i32 %74, 8
  %76 = and i32 %75, 255
  %77 = trunc i32 %76 to i8
  %78 = getelementptr inbounds [2 x i8], ptr %19, i64 0, i64 0
  store i8 %77, ptr %78, align 1, !tbaa !10
  %79 = load i16, ptr %18, align 2, !tbaa !22
  %80 = zext i16 %79 to i32
  %81 = and i32 %80, 255
  %82 = trunc i32 %81 to i8
  %83 = getelementptr inbounds [2 x i8], ptr %19, i64 0, i64 1
  store i8 %82, ptr %83, align 1, !tbaa !10
  %84 = load ptr, ptr %21, align 8, !tbaa !27
  %85 = getelementptr inbounds [2 x i8], ptr %19, i64 0, i64 0
  %86 = call i32 @HMAC_Update(ptr noundef %84, ptr noundef %85, i64 noundef 2)
  %87 = icmp sle i32 %86, 0
  br i1 %87, label %88, label %89

88:                                               ; preds = %72
  call void @ERR_new()
  call void @ERR_set_debug(ptr noundef @.str, i32 noundef 337, ptr noundef @__func__.ossl_rsa_prf)
  call void (i32, i32, ptr, ...) @ERR_set_error(i32 noundef 4, i32 noundef 786691, ptr noundef null)
  br label %141

89:                                               ; preds = %72
  %90 = load ptr, ptr %21, align 8, !tbaa !27
  %91 = load ptr, ptr %12, align 8, !tbaa !3
  %92 = load i32, ptr %13, align 4, !tbaa !8
  %93 = sext i32 %92 to i64
  %94 = call i32 @HMAC_Update(ptr noundef %90, ptr noundef %91, i64 noundef %93)
  %95 = icmp sle i32 %94, 0
  br i1 %95, label %96, label %97

96:                                               ; preds = %89
  call void @ERR_new()
  call void @ERR_set_debug(ptr noundef @.str, i32 noundef 341, ptr noundef @__func__.ossl_rsa_prf)
  call void (i32, i32, ptr, ...) @ERR_set_error(i32 noundef 4, i32 noundef 786691, ptr noundef null)
  br label %141

97:                                               ; preds = %89
  %98 = load ptr, ptr %21, align 8, !tbaa !27
  %99 = getelementptr inbounds [2 x i8], ptr %20, i64 0, i64 0
  %100 = call i32 @HMAC_Update(ptr noundef %98, ptr noundef %99, i64 noundef 2)
  %101 = icmp sle i32 %100, 0
  br i1 %101, label %102, label %103

102:                                              ; preds = %97
  call void @ERR_new()
  call void @ERR_set_debug(ptr noundef @.str, i32 noundef 345, ptr noundef @__func__.ossl_rsa_prf)
  call void (i32, i32, ptr, ...) @ERR_set_error(i32 noundef 4, i32 noundef 786691, ptr noundef null)
  br label %141

103:                                              ; preds = %97
  store i32 32, ptr %24, align 4, !tbaa !8
  %104 = load i32, ptr %16, align 4, !tbaa !8
  %105 = add nsw i32 %104, 32
  %106 = load i32, ptr %11, align 4, !tbaa !8
  %107 = icmp sgt i32 %105, %106
  br i1 %107, label %108, label %124

108:                                              ; preds = %103
  %109 = load ptr, ptr %21, align 8, !tbaa !27
  %110 = getelementptr inbounds [32 x i8], ptr %23, i64 0, i64 0
  %111 = call i32 @HMAC_Final(ptr noundef %109, ptr noundef %110, ptr noundef %24)
  %112 = icmp sle i32 %111, 0
  br i1 %112, label %113, label %114

113:                                              ; preds = %108
  call void @ERR_new()
  call void @ERR_set_debug(ptr noundef @.str, i32 noundef 357, ptr noundef @__func__.ossl_rsa_prf)
  call void (i32, i32, ptr, ...) @ERR_set_error(i32 noundef 4, i32 noundef 786691, ptr noundef null)
  br label %141

114:                                              ; preds = %108
  %115 = load ptr, ptr %10, align 8, !tbaa !3
  %116 = load i32, ptr %16, align 4, !tbaa !8
  %117 = sext i32 %116 to i64
  %118 = getelementptr inbounds i8, ptr %115, i64 %117
  %119 = getelementptr inbounds [32 x i8], ptr %23, i64 0, i64 0
  %120 = load i32, ptr %11, align 4, !tbaa !8
  %121 = load i32, ptr %16, align 4, !tbaa !8
  %122 = sub nsw i32 %120, %121
  %123 = sext i32 %122 to i64
  call void @llvm.memcpy.p0.p0.i64(ptr align 1 %118, ptr align 16 %119, i64 %123, i1 false)
  br label %134

124:                                              ; preds = %103
  %125 = load ptr, ptr %21, align 8, !tbaa !27
  %126 = load ptr, ptr %10, align 8, !tbaa !3
  %127 = load i32, ptr %16, align 4, !tbaa !8
  %128 = sext i32 %127 to i64
  %129 = getelementptr inbounds i8, ptr %126, i64 %128
  %130 = call i32 @HMAC_Final(ptr noundef %125, ptr noundef %129, ptr noundef %24)
  %131 = icmp sle i32 %130, 0
  br i1 %131, label %132, label %133

132:                                              ; preds = %124
  call void @ERR_new()
  call void @ERR_set_debug(ptr noundef @.str, i32 noundef 363, ptr noundef @__func__.ossl_rsa_prf)
  call void (i32, i32, ptr, ...) @ERR_set_error(i32 noundef 4, i32 noundef 786691, ptr noundef null)
  br label %141

133:                                              ; preds = %124
  br label %134

134:                                              ; preds = %133, %114
  br label %135

135:                                              ; preds = %134
  %136 = load i32, ptr %16, align 4, !tbaa !8
  %137 = add nsw i32 %136, 32
  store i32 %137, ptr %16, align 4, !tbaa !8
  %138 = load i16, ptr %18, align 2, !tbaa !22
  %139 = add i16 %138, 1
  store i16 %139, ptr %18, align 2, !tbaa !22
  br label %63, !llvm.loop !31

140:                                              ; preds = %63
  store i32 0, ptr %17, align 4, !tbaa !8
  br label %141

141:                                              ; preds = %140, %132, %113, %102, %96, %88, %71, %61, %54, %48
  %142 = load ptr, ptr %21, align 8, !tbaa !27
  call void @HMAC_CTX_free(ptr noundef %142)
  %143 = load ptr, ptr %22, align 8, !tbaa !29
  call void @EVP_MD_free(ptr noundef %143)
  %144 = load i32, ptr %17, align 4, !tbaa !8
  store i32 %144, ptr %8, align 4
  store i32 1, ptr %25, align 4
  br label %145

145:                                              ; preds = %141, %31
  call void @llvm.lifetime.end.p0(i64 4, ptr %24) #6
  call void @llvm.lifetime.end.p0(i64 32, ptr %23) #6
  call void @llvm.lifetime.end.p0(i64 8, ptr %22) #6
  call void @llvm.lifetime.end.p0(i64 8, ptr %21) #6
  call void @llvm.lifetime.end.p0(i64 2, ptr %20) #6
  call void @llvm.lifetime.end.p0(i64 2, ptr %19) #6
  call void @llvm.lifetime.end.p0(i64 2, ptr %18) #6
  call void @llvm.lifetime.end.p0(i64 4, ptr %17) #6
  call void @llvm.lifetime.end.p0(i64 4, ptr %16) #6
  %146 = load i32, ptr %8, align 4
  ret i32 %146
}