; Function Attrs: nounwind uwtable
define internal fastcc range(i32 -1, 1) i32 @ossl_rsa_prf(ptr noundef %0, ptr noundef nonnull %1, i32 noundef range(i32 1, -2147483648) %2, ptr noundef %3, i32 noundef range(i32 6, 8) %4, ptr noundef %5, i16 noundef zeroext %6) unnamed_addr #0 {
  %8 = alloca [2 x i8], align 1
  %9 = alloca [2 x i8], align 1
  %10 = alloca [32 x i8], align 16
  %11 = alloca i32, align 4
  call void @llvm.lifetime.start.p0(i64 2, ptr nonnull %8) #5
  call void @llvm.lifetime.start.p0(i64 2, ptr nonnull %9) #5
  call void @llvm.lifetime.start.p0(i64 32, ptr nonnull %10) #5
  call void @llvm.lifetime.start.p0(i64 4, ptr nonnull %11) #5
  %12 = shl nsw i32 %2, 3
  %13 = zext i16 %6 to i32
  %.not = icmp eq i32 %12, %13
  br i1 %.not, label %15, label %14

14:                                               ; preds = %7
  tail call void @ERR_new() #5
  tail call void @ERR_set_debug(ptr noundef nonnull @.str, i32 noundef 296, ptr noundef nonnull @__func__.ossl_rsa_prf) #5
  tail call void (i32, i32, ptr, ...) @ERR_set_error(i32 noundef 4, i32 noundef 786691, ptr noundef null) #5
  br label %70

15:                                               ; preds = %7
  %16 = lshr i16 %6, 8
  %17 = trunc nuw i16 %16 to i8
  store i8 %17, ptr %9, align 1, !tbaa !3
  %18 = trunc i16 %6 to i8
  %19 = getelementptr inbounds nuw i8, ptr %9, i64 1
  store i8 %18, ptr %19, align 1, !tbaa !3
  %20 = tail call ptr @HMAC_CTX_new() #5
  %21 = icmp eq ptr %20, null
  br i1 %21, label %22, label %23

22:                                               ; preds = %15
  tail call void @ERR_new() #5
  tail call void @ERR_set_debug(ptr noundef nonnull @.str, i32 noundef 305, ptr noundef nonnull @__func__.ossl_rsa_prf) #5
  tail call void (i32, i32, ptr, ...) @ERR_set_error(i32 noundef 4, i32 noundef 786691, ptr noundef null) #5
  br label %.loopexit

23:                                               ; preds = %15
  %24 = tail call ptr @EVP_MD_fetch(ptr noundef %0, ptr noundef nonnull @.str.3, ptr noundef null) #5
  %25 = icmp eq ptr %24, null
  br i1 %25, label %26, label %27

26:                                               ; preds = %23
  tail call void @ERR_new() #5
  tail call void @ERR_set_debug(ptr noundef nonnull @.str, i32 noundef 318, ptr noundef nonnull @__func__.ossl_rsa_prf) #5
  tail call void (i32, i32, ptr, ...) @ERR_set_error(i32 noundef 4, i32 noundef 786691, ptr noundef null) #5
  br label %.loopexit

27:                                               ; preds = %23
  %28 = tail call i32 @HMAC_Init_ex(ptr noundef nonnull %20, ptr noundef %5, i32 noundef 32, ptr noundef nonnull %24, ptr noundef null) #5
  %29 = icmp slt i32 %28, 1
  br i1 %29, label %33, label %.preheader

.preheader:                                       ; preds = %27
  %30 = getelementptr inbounds nuw i8, ptr %8, i64 1
  %31 = zext nneg i32 %4 to i64
  %32 = zext nneg i32 %2 to i64
  br label %34

33:                                               ; preds = %27
  tail call void @ERR_new() #5
  tail call void @ERR_set_debug(ptr noundef nonnull @.str, i32 noundef 323, ptr noundef nonnull @__func__.ossl_rsa_prf) #5
  tail call void (i32, i32, ptr, ...) @ERR_set_error(i32 noundef 4, i32 noundef 786691, ptr noundef null) #5
  br label %.loopexit

34:                                               ; preds = %.preheader, %67
  %indvars.iv = phi i64 [ 0, %.preheader ], [ %indvars.iv.next, %67 ]
  %.03645 = phi i16 [ 0, %.preheader ], [ %68, %67 ]
  %35 = call i32 @HMAC_Init_ex(ptr noundef nonnull %20, ptr noundef null, i32 noundef 0, ptr noundef null, ptr noundef null) #5
  %36 = icmp slt i32 %35, 1
  br i1 %36, label %37, label %38

37:                                               ; preds = %34
  call void @ERR_new() #5
  call void @ERR_set_debug(ptr noundef nonnull @.str, i32 noundef 329, ptr noundef nonnull @__func__.ossl_rsa_prf) #5
  call void (i32, i32, ptr, ...) @ERR_set_error(i32 noundef 4, i32 noundef 786691, ptr noundef null) #5
  br label %.loopexit

38:                                               ; preds = %34
  %39 = lshr i16 %.03645, 8
  %40 = trunc nuw i16 %39 to i8
  store i8 %40, ptr %8, align 1, !tbaa !3
  %41 = trunc i16 %.03645 to i8
  store i8 %41, ptr %30, align 1, !tbaa !3
  %42 = call i32 @HMAC_Update(ptr noundef nonnull %20, ptr noundef nonnull %8, i64 noundef 2) #5
  %43 = icmp slt i32 %42, 1
  br i1 %43, label %44, label %45

44:                                               ; preds = %38
  call void @ERR_new() #5
  call void @ERR_set_debug(ptr noundef nonnull @.str, i32 noundef 337, ptr noundef nonnull @__func__.ossl_rsa_prf) #5
  call void (i32, i32, ptr, ...) @ERR_set_error(i32 noundef 4, i32 noundef 786691, ptr noundef null) #5
  br label %.loopexit

45:                                               ; preds = %38
  %46 = call i32 @HMAC_Update(ptr noundef nonnull %20, ptr noundef %3, i64 noundef %31) #5
  %47 = icmp slt i32 %46, 1
  br i1 %47, label %48, label %49

48:                                               ; preds = %45
  call void @ERR_new() #5
  call void @ERR_set_debug(ptr noundef nonnull @.str, i32 noundef 341, ptr noundef nonnull @__func__.ossl_rsa_prf) #5
  call void (i32, i32, ptr, ...) @ERR_set_error(i32 noundef 4, i32 noundef 786691, ptr noundef null) #5
  br label %.loopexit

49:                                               ; preds = %45
  %50 = call i32 @HMAC_Update(ptr noundef nonnull %20, ptr noundef nonnull %9, i64 noundef 2) #5
  %51 = icmp slt i32 %50, 1
  br i1 %51, label %52, label %53

52:                                               ; preds = %49
  call void @ERR_new() #5
  call void @ERR_set_debug(ptr noundef nonnull @.str, i32 noundef 345, ptr noundef nonnull @__func__.ossl_rsa_prf) #5
  call void (i32, i32, ptr, ...) @ERR_set_error(i32 noundef 4, i32 noundef 786691, ptr noundef null) #5
  br label %.loopexit

53:                                               ; preds = %49
  store i32 32, ptr %11, align 4, !tbaa !19
  %indvars.iv.next = add nuw nsw i64 %indvars.iv, 32
  %54 = icmp samesign ugt i64 %indvars.iv.next, %32
  br i1 %54, label %55, label %62

55:                                               ; preds = %53
  %56 = call i32 @HMAC_Final(ptr noundef nonnull %20, ptr noundef nonnull %10, ptr noundef nonnull %11) #5
  %57 = icmp slt i32 %56, 1
  br i1 %57, label %58, label %59

58:                                               ; preds = %55
  call void @ERR_new() #5
  call void @ERR_set_debug(ptr noundef nonnull @.str, i32 noundef 357, ptr noundef nonnull @__func__.ossl_rsa_prf) #5
  call void (i32, i32, ptr, ...) @ERR_set_error(i32 noundef 4, i32 noundef 786691, ptr noundef null) #5
  br label %.loopexit

59:                                               ; preds = %55
  %60 = getelementptr inbounds nuw i8, ptr %1, i64 %indvars.iv
  %61 = sub nsw i64 %32, %indvars.iv
  call void @llvm.memcpy.p0.p0.i64(ptr nonnull align 1 %60, ptr nonnull align 16 %10, i64 %61, i1 false)
  br label %67

62:                                               ; preds = %53
  %63 = getelementptr inbounds nuw i8, ptr %1, i64 %indvars.iv
  %64 = call i32 @HMAC_Final(ptr noundef nonnull %20, ptr noundef nonnull %63, ptr noundef nonnull %11) #5
  %65 = icmp slt i32 %64, 1
  br i1 %65, label %66, label %67

66:                                               ; preds = %62
  call void @ERR_new() #5
  call void @ERR_set_debug(ptr noundef nonnull @.str, i32 noundef 363, ptr noundef nonnull @__func__.ossl_rsa_prf) #5
  call void (i32, i32, ptr, ...) @ERR_set_error(i32 noundef 4, i32 noundef 786691, ptr noundef null) #5
  br label %.loopexit

67:                                               ; preds = %59, %62
  %68 = add i16 %.03645, 1
  %69 = icmp samesign ult i64 %indvars.iv.next, %32
  br i1 %69, label %34, label %.loopexit, !llvm.loop !21

.loopexit:                                        ; preds = %67, %66, %58, %52, %48, %44, %37, %33, %26, %22
  %.037 = phi i32 [ -1, %22 ], [ -1, %26 ], [ -1, %33 ], [ -1, %37 ], [ -1, %44 ], [ -1, %48 ], [ -1, %52 ], [ -1, %58 ], [ -1, %66 ], [ 0, %67 ]
  %.0 = phi ptr [ null, %22 ], [ null, %26 ], [ %24, %33 ], [ %24, %37 ], [ %24, %44 ], [ %24, %48 ], [ %24, %52 ], [ %24, %58 ], [ %24, %66 ], [ %24, %67 ]
  call void @HMAC_CTX_free(ptr noundef %20) #5
  call void @EVP_MD_free(ptr noundef %.0) #5
  br label %70

70:                                               ; preds = %.loopexit, %14
  %.039 = phi i32 [ -1, %14 ], [ %.037, %.loopexit ]
  call void @llvm.lifetime.end.p0(i64 4, ptr nonnull %11) #5
  call void @llvm.lifetime.end.p0(i64 32, ptr nonnull %10) #5
  call void @llvm.lifetime.end.p0(i64 2, ptr nonnull %9) #5
  call void @llvm.lifetime.end.p0(i64 2, ptr nonnull %8) #5
  ret i32 %.039
}